target datalayout = "e-m:e-p270:32:32-p271:32:32-p272:64:64-i64:64-i128:128-f80:128-n8:16:32:64-S128"
target triple = "x86_64-pc-linux-gnu"

; Function Attrs: nounwind uwtable
define internal i32 @ExtraCost_C(ptr noundef %0, i32 noundef %1) #0 {
  %3 = alloca ptr, align 8
  %4 = alloca i32, align 4
  %5 = alloca i32, align 4
  %6 = alloca i32, align 4
  store ptr %0, ptr %3, align 8
  store i32 %1, ptr %4, align 4
  %7 = load ptr, ptr %3, align 8
  %8 = getelementptr inbounds i32, ptr %7, i64 4
  %9 = load i32, ptr %8, align 4
  %10 = load ptr, ptr %3, align 8
  %11 = getelementptr inbounds i32, ptr %10, i64 5
  %12 = load i32, ptr %11, align 4
  %13 = add i32 %9, %12
  store i32 %13, ptr %6, align 4
  store i32 2, ptr %5, align 4
  br label %14

14:                                               ; preds = %40, %2
  %15 = load i32, ptr %5, align 4
  %16 = load i32, ptr %4, align 4
  %17 = sdiv i32 %16, 2
  %18 = sub nsw i32 %17, 1
  %19 = icmp slt i32 %15, %18
  br i1 %19, label %20, label %43

20:                                               ; preds = %14
  %21 = load i32, ptr %5, align 4
  %22 = load ptr, ptr %3, align 8
  %23 = load i32, ptr %5, align 4
  %24 = mul nsw i32 2, %23
  %25 = add nsw i32 %24, 2
  %26 = sext i32 %25 to i64
  %27 = getelementptr inbounds i32, ptr %22, i64 %26
  %28 = load i32, ptr %27, align 4
  %29 = load ptr, ptr %3, align 8
  %30 = load i32, ptr %5, align 4
  %31 = mul nsw i32 2, %30
  %32 = add nsw i32 %31, 3
  %33 = sext i32 %32 to i64
  %34 = getelementptr inbounds i32, ptr %29, i64 %33
  %35 = load i32, ptr %34, align 4
  %36 = add i32 %28, %35
  %37 = mul i32 %21, %36
  %38 = load i32, ptr %6, align 4
  %39 = add i32 %38, %37
  store i32 %39, ptr %6, align 4
  br label %40

40:                                               ; preds = %20
  %41 = load i32, ptr %5, align 4
  %42 = add nsw i32 %41, 1
  store i32 %42, ptr %5, align 4
  br label %14, !llvm.loop !16

43:                                               ; preds = %14
  %44 = load i32, ptr %6, align 4
  ret i32 %44
}