; Function Attrs: nofree norecurse nosync nounwind memory(argmem: read) uwtable
define internal i32 @ExtraCost_C(ptr nocapture noundef readonly %0, i32 noundef %1) #9 {
  %3 = getelementptr inbounds i8, ptr %0, i64 16
  %4 = load i32, ptr %3, align 4
  %5 = getelementptr inbounds i8, ptr %0, i64 20
  %6 = load i32, ptr %5, align 4
  %7 = add i32 %6, %4
  %8 = icmp sgt i32 %1, 7
  br i1 %8, label %.lr.ph.preheader, label %._crit_edge

.lr.ph.preheader:                                 ; preds = %2
  %9 = lshr i32 %1, 1
  %smax = add nsw i32 %9, -1
  %wide.trip.count = zext nneg i32 %smax to i64
  br label %.lr.ph

.lr.ph:                                           ; preds = %.lr.ph.preheader, %.lr.ph
  %indvars.iv = phi i64 [ 2, %.lr.ph.preheader ], [ %indvars.iv.next, %.lr.ph ]
  %.013 = phi i32 [ %7, %.lr.ph.preheader ], [ %19, %.lr.ph ]
  %10 = shl nuw nsw i64 %indvars.iv, 1
  %11 = getelementptr inbounds i32, ptr %0, i64 %10
  %12 = getelementptr inbounds i8, ptr %11, i64 8
  %13 = load i32, ptr %12, align 4
  %14 = getelementptr inbounds i8, ptr %11, i64 12
  %15 = load i32, ptr %14, align 4
  %16 = add i32 %15, %13
  %17 = trunc nuw nsw i64 %indvars.iv to i32
  %18 = mul i32 %16, %17
  %19 = add i32 %18, %.013
  %indvars.iv.next = add nuw nsw i64 %indvars.iv, 1
  %exitcond.not = icmp eq i64 %indvars.iv.next, %wide.trip.count
  br i1 %exitcond.not, label %._crit_edge, label %.lr.ph, !llvm.loop !16

._crit_edge:                                      ; preds = %.lr.ph, %2
  %.0.lcssa = phi i32 [ %7, %2 ], [ %19, %.lr.ph ]
  ret i32 %.0.lcssa
}